target datalayout = "e-m:e-p270:32:32-p271:32:32-p272:64:64-i64:64-i128:128-f80:128-n8:16:32:64-S128"
target triple = "x86_64-pc-linux-gnu"

%struct.FilterParams = type { i32, double, ptr, ptr, ptr }

; Function Attrs: nounwind uwtable
define internal void @blend_hardmix_32bit(ptr noundef %0, i64 noundef %1, ptr noundef %2, i64 noundef %3, ptr noundef %4, i64 noundef %5, i64 noundef %6, i64 noundef %7, ptr noundef %8, ptr noundef %9) #0 {
  %11 = alloca ptr, align 8
  %12 = alloca i64, align 8
  %13 = alloca ptr, align 8
  %14 = alloca i64, align 8
  %15 = alloca ptr, align 8
  %16 = alloca i64, align 8
  %17 = alloca i64, align 8
  %18 = alloca i64, align 8
  %19 = alloca ptr, align 8
  %20 = alloca ptr, align 8
  %21 = alloca ptr, align 8
  %22 = alloca ptr, align 8
  %23 = alloca ptr, align 8
  %24 = alloca float, align 4
  %25 = alloca i32, align 4
  %26 = alloca i32, align 4
  %27 = alloca i32, align 4
  store ptr %0, ptr %11, align 8, !tbaa !46
  store i64 %1, ptr %12, align 8, !tbaa !88
  store ptr %2, ptr %13, align 8, !tbaa !46
  store i64 %3, ptr %14, align 8, !tbaa !88
  store ptr %4, ptr %15, align 8, !tbaa !46
  store i64 %5, ptr %16, align 8, !tbaa !88
  store i64 %6, ptr %17, align 8, !tbaa !88
  store i64 %7, ptr %18, align 8, !tbaa !88
  store ptr %8, ptr %19, align 8, !tbaa !77
  store ptr %9, ptr %20, align 8, !tbaa !89
  call void @llvm.lifetime.start.p0(i64 8, ptr %21) #12
  %28 = load ptr, ptr %11, align 8, !tbaa !46
  store ptr %28, ptr %21, align 8, !tbaa !91
  call void @llvm.lifetime.start.p0(i64 8, ptr %22) #12
  %29 = load ptr, ptr %13, align 8, !tbaa !46
  store ptr %29, ptr %22, align 8, !tbaa !91
  call void @llvm.lifetime.start.p0(i64 8, ptr %23) #12
  %30 = load ptr, ptr %15, align 8, !tbaa !46
  store ptr %30, ptr %23, align 8, !tbaa !91
  call void @llvm.lifetime.start.p0(i64 4, ptr %24) #12
  %31 = load ptr, ptr %19, align 8, !tbaa !77
  %32 = getelementptr inbounds nuw %struct.FilterParams, ptr %31, i32 0, i32 1
  %33 = load double, ptr %32, align 8, !tbaa !82
  %34 = fptrunc nsz double %33 to float
  store float %34, ptr %24, align 4, !tbaa !99
  %35 = load i64, ptr %16, align 8, !tbaa !88
  %36 = udiv i64 %35, 4
  store i64 %36, ptr %16, align 8, !tbaa !88
  %37 = load i64, ptr %12, align 8, !tbaa !88
  %38 = udiv i64 %37, 4
  store i64 %38, ptr %12, align 8, !tbaa !88
  %39 = load i64, ptr %14, align 8, !tbaa !88
  %40 = udiv i64 %39, 4
  store i64 %40, ptr %14, align 8, !tbaa !88
  call void @llvm.lifetime.start.p0(i64 4, ptr %25) #12
  store i32 0, ptr %25, align 4, !tbaa !37
  br label %41

41:                                               ; preds = %98, %10
  %42 = load i32, ptr %25, align 4, !tbaa !37
  %43 = sext i32 %42 to i64
  %44 = load i64, ptr %18, align 8, !tbaa !88
  %45 = icmp slt i64 %43, %44
  br i1 %45, label %47, label %46

46:                                               ; preds = %41
  store i32 2, ptr %26, align 4
  call void @llvm.lifetime.end.p0(i64 4, ptr %25) #12
  br label %101

47:                                               ; preds = %41
  call void @llvm.lifetime.start.p0(i64 4, ptr %27) #12
  store i32 0, ptr %27, align 4, !tbaa !37
  br label %48

48:                                               ; preds = %85, %47
  %49 = load i32, ptr %27, align 4, !tbaa !37
  %50 = sext i32 %49 to i64
  %51 = load i64, ptr %17, align 8, !tbaa !88
  %52 = icmp slt i64 %50, %51
  br i1 %52, label %54, label %53

53:                                               ; preds = %48
  store i32 5, ptr %26, align 4
  call void @llvm.lifetime.end.p0(i64 4, ptr %27) #12
  br label %88

54:                                               ; preds = %48
  %55 = load ptr, ptr %21, align 8, !tbaa !91
  %56 = load i32, ptr %27, align 4, !tbaa !37
  %57 = sext i32 %56 to i64
  %58 = getelementptr inbounds float, ptr %55, i64 %57
  %59 = load float, ptr %58, align 4, !tbaa !99
  %60 = load ptr, ptr %21, align 8, !tbaa !91
  %61 = load i32, ptr %27, align 4, !tbaa !37
  %62 = sext i32 %61 to i64
  %63 = getelementptr inbounds float, ptr %60, i64 %62
  %64 = load float, ptr %63, align 4, !tbaa !99
  %65 = load ptr, ptr %22, align 8, !tbaa !91
  %66 = load i32, ptr %27, align 4, !tbaa !37
  %67 = sext i32 %66 to i64
  %68 = getelementptr inbounds float, ptr %65, i64 %67
  %69 = load float, ptr %68, align 4, !tbaa !99
  %70 = fsub nsz float 1.000000e+00, %69
  %71 = fcmp nsz olt float %64, %70
  %72 = select nsz i1 %71, float 0.000000e+00, float 1.000000e+00
  %73 = load ptr, ptr %21, align 8, !tbaa !91
  %74 = load i32, ptr %27, align 4, !tbaa !37
  %75 = sext i32 %74 to i64
  %76 = getelementptr inbounds float, ptr %73, i64 %75
  %77 = load float, ptr %76, align 4, !tbaa !99
  %78 = fsub nsz float %72, %77
  %79 = load float, ptr %24, align 4, !tbaa !99
  %80 = call nsz float @llvm.fmuladd.f32(float %78, float %79, float %59)
  %81 = load ptr, ptr %23, align 8, !tbaa !91
  %82 = load i32, ptr %27, align 4, !tbaa !37
  %83 = sext i32 %82 to i64
  %84 = getelementptr inbounds float, ptr %81, i64 %83
  store float %80, ptr %84, align 4, !tbaa !99
  br label %85

85:                                               ; preds = %54
  %86 = load i32, ptr %27, align 4, !tbaa !37
  %87 = add nsw i32 %86, 1
  store i32 %87, ptr %27, align 4, !tbaa !37
  br label %48, !llvm.loop !614

88:                                               ; preds = %53
  %89 = load i64, ptr %16, align 8, !tbaa !88
  %90 = load ptr, ptr %23, align 8, !tbaa !91
  %91 = getelementptr inbounds float, ptr %90, i64 %89
  store ptr %91, ptr %23, align 8, !tbaa !91
  %92 = load i64, ptr %12, align 8, !tbaa !88
  %93 = load ptr, ptr %21, align 8, !tbaa !91
  %94 = getelementptr inbounds float, ptr %93, i64 %92
  store ptr %94, ptr %21, align 8, !tbaa !91
  %95 = load i64, ptr %14, align 8, !tbaa !88
  %96 = load ptr, ptr %22, align 8, !tbaa !91
  %97 = getelementptr inbounds float, ptr %96, i64 %95
  store ptr %97, ptr %22, align 8, !tbaa !91
  br label %98

98:                                               ; preds = %88
  %99 = load i32, ptr %25, align 4, !tbaa !37
  %100 = add nsw i32 %99, 1
  store i32 %100, ptr %25, align 4, !tbaa !37
  br label %41, !llvm.loop !615

101:                                              ; preds = %46
  call void @llvm.lifetime.end.p0(i64 4, ptr %24) #12
  call void @llvm.lifetime.end.p0(i64 8, ptr %23) #12
  call void @llvm.lifetime.end.p0(i64 8, ptr %22) #12
  call void @llvm.lifetime.end.p0(i64 8, ptr %21) #12
  ret void
}